target datalayout = "e-m:e-p270:32:32-p271:32:32-p272:64:64-i64:64-i128:128-f80:128-n8:16:32:64-S128"
target triple = "x86_64-pc-linux-gnu"

%"class.std::__cxx11::basic_string" = type { %"struct.std::__cxx11::basic_string<char>::_Alloc_hider", i64, %union.anon }
%"struct.std::__cxx11::basic_string<char>::_Alloc_hider" = type { ptr }
%union.anon = type { i64, [8 x i8] }
%"struct.osgeo::proj::ExtentAndRes" = type { i8, double, double, double, double, double, double, double, double }
%"class.osgeo::proj::Grid" = type { ptr, %"class.std::__cxx11::basic_string", i32, i32, %"struct.osgeo::proj::ExtentAndRes" }
%"class.std::vector.46" = type { %"struct.std::_Vector_base.47" }
%"struct.std::_Vector_base.47" = type { %"struct.std::_Vector_base<unsigned char, std::allocator<unsigned char>>::_Vector_impl" }
%"struct.std::_Vector_base<unsigned char, std::allocator<unsigned char>>::_Vector_impl" = type { %"struct.std::_Vector_base<unsigned char, std::allocator<unsigned char>>::_Vector_impl_data" }
%"struct.std::_Vector_base<unsigned char, std::allocator<unsigned char>>::_Vector_impl_data" = type { ptr, ptr, ptr }
%"class.osgeo::proj::GTiffGrid" = type <{ %"class.osgeo::proj::Grid", ptr, ptr, ptr, ptr, i32, i32, i16, i16, i8, [3 x i8], i64, i8, [3 x i8], i32, i32, [4 x i8], %"class.std::vector.46", i32, i32, i32, i32, %"class.std::vector.51", %"class.std::vector.51", %"class.std::map", i8, i8, i8, i8, float, i32, [4 x i8] }>
%"class.std::vector.51" = type { %"struct.std::_Vector_base.52" }
%"struct.std::_Vector_base.52" = type { %"struct.std::_Vector_base<double, std::allocator<double>>::_Vector_impl" }
%"struct.std::_Vector_base<double, std::allocator<double>>::_Vector_impl" = type { %"struct.std::_Vector_base<double, std::allocator<double>>::_Vector_impl_data" }
%"struct.std::_Vector_base<double, std::allocator<double>>::_Vector_impl_data" = type { ptr, ptr, ptr }
%"class.std::map" = type { %"class.std::_Rb_tree" }
%"class.std::_Rb_tree" = type { %"struct.std::_Rb_tree<std::pair<int, std::__cxx11::basic_string<char>>, std::pair<const std::pair<int, std::__cxx11::basic_string<char>>, std::__cxx11::basic_string<char>>, std::_Select1st<std::pair<const std::pair<int, std::__cxx11::basic_string<char>>, std::__cxx11::basic_string<char>>>, std::less<std::pair<int, std::__cxx11::basic_string<char>>>>::_Rb_tree_impl" }
%"struct.std::_Rb_tree<std::pair<int, std::__cxx11::basic_string<char>>, std::pair<const std::pair<int, std::__cxx11::basic_string<char>>, std::__cxx11::basic_string<char>>, std::_Select1st<std::pair<const std::pair<int, std::__cxx11::basic_string<char>>, std::__cxx11::basic_string<char>>>, std::less<std::pair<int, std::__cxx11::basic_string<char>>>>::_Rb_tree_impl" = type { [8 x i8], %"struct.std::_Rb_tree_header" }
%"struct.std::_Rb_tree_header" = type { %"struct.std::_Rb_tree_node_base", i64 }
%"struct.std::_Rb_tree_node_base" = type { i32, ptr, ptr, ptr }
%"class.std::unique_ptr.61" = type { %"struct.std::__uniq_ptr_data.62" }
%"struct.std::__uniq_ptr_data.62" = type { %"class.std::__uniq_ptr_impl.63" }
%"class.std::__uniq_ptr_impl.63" = type { %"class.std::tuple.64" }
%"class.std::tuple.64" = type { %"struct.std::_Tuple_impl.65" }
%"struct.std::_Tuple_impl.65" = type { %"struct.std::_Head_base.68" }
%"struct.std::_Head_base.68" = type { ptr }
%"class.std::vector.210" = type { %"struct.std::_Vector_base.211" }
%"struct.std::_Vector_base.211" = type { %"struct.std::_Vector_base<std::unique_ptr<osgeo::proj::GenericShiftGrid>, std::allocator<std::unique_ptr<osgeo::proj::GenericShiftGrid>>>::_Vector_impl" }
%"struct.std::_Vector_base<std::unique_ptr<osgeo::proj::GenericShiftGrid>, std::allocator<std::unique_ptr<osgeo::proj::GenericShiftGrid>>>::_Vector_impl" = type { %"struct.std::_Vector_base<std::unique_ptr<osgeo::proj::GenericShiftGrid>, std::allocator<std::unique_ptr<osgeo::proj::GenericShiftGrid>>>::_Vector_impl_data" }
%"struct.std::_Vector_base<std::unique_ptr<osgeo::proj::GenericShiftGrid>, std::allocator<std::unique_ptr<osgeo::proj::GenericShiftGrid>>>::_Vector_impl_data" = type { ptr, ptr, ptr }
%"class.osgeo::proj::GTiffGenericGrid" = type <{ %"class.osgeo::proj::GenericShiftGrid", %"class.std::unique_ptr.61", ptr, %"class.std::__cxx11::basic_string", i8, [7 x i8] }>
%"class.osgeo::proj::GenericShiftGrid" = type { %"class.osgeo::proj::Grid", %"class.std::vector.210" }

; Function Attrs: mustprogress nounwind uwtable
define linkonce_odr hidden noundef nonnull align 8 dereferenceable(8) ptr @_ZNSt10_Head_baseILm0EPN5osgeo4proj9GTiffGridELb0EE7_M_headERKS4_(ptr noundef nonnull align 8 dereferenceable(8) %0) #0 comdat align 2 {
  %2 = alloca ptr, align 8
  store ptr %0, ptr %2, align 8, !tbaa !690
  %3 = load ptr, ptr %2, align 8, !tbaa !690
  %4 = getelementptr inbounds nuw %"struct.std::_Head_base.68", ptr %3, i32 0, i32 0
  ret ptr %4
}

; Function Attrs: mustprogress nounwind uwtable
define linkonce_odr hidden noundef nonnull align 8 dereferenceable(8) ptr @_ZNSt11_Tuple_implILm0EJPN5osgeo4proj9GTiffGridESt14default_deleteIS2_EEE7_M_headERKS6_(ptr noundef nonnull align 8 dereferenceable(8) %0) #0 comdat align 2 {
  %2 = alloca ptr, align 8
  store ptr %0, ptr %2, align 8, !tbaa !686
  %3 = load ptr, ptr %2, align 8, !tbaa !686
  %4 = call noundef nonnull align 8 dereferenceable(8) ptr @_ZNSt10_Head_baseILm0EPN5osgeo4proj9GTiffGridELb0EE7_M_headERKS4_(ptr noundef nonnull align 8 dereferenceable(8) %3) #6
  ret ptr %4
}

; Function Attrs: mustprogress nounwind uwtable
define linkonce_odr hidden noundef nonnull align 8 dereferenceable(8) ptr @_ZSt12__get_helperILm0EPN5osgeo4proj9GTiffGridEJSt14default_deleteIS2_EEERKT0_RKSt11_Tuple_implIXT_EJS6_DpT1_EE(ptr noundef nonnull align 8 dereferenceable(8) %0) #0 comdat {
  %2 = alloca ptr, align 8
  store ptr %0, ptr %2, align 8, !tbaa !686
  %3 = load ptr, ptr %2, align 8, !tbaa !686
  %4 = call noundef nonnull align 8 dereferenceable(8) ptr @_ZNSt11_Tuple_implILm0EJPN5osgeo4proj9GTiffGridESt14default_deleteIS2_EEE7_M_headERKS6_(ptr noundef nonnull align 8 dereferenceable(8) %3) #6
  ret ptr %4
}

; Function Attrs: mustprogress nounwind uwtable
define linkonce_odr hidden noundef nonnull align 8 dereferenceable(8) ptr @_ZSt3getILm0EJPN5osgeo4proj9GTiffGridESt14default_deleteIS2_EEERKNSt13tuple_elementIXT_ESt5tupleIJDpT0_EEE4typeERKSA_(ptr noundef nonnull align 8 dereferenceable(8) %0) #0 comdat {
  %2 = alloca ptr, align 8
  store ptr %0, ptr %2, align 8, !tbaa !684
  %3 = load ptr, ptr %2, align 8, !tbaa !684
  %4 = call noundef nonnull align 8 dereferenceable(8) ptr @_ZSt12__get_helperILm0EPN5osgeo4proj9GTiffGridEJSt14default_deleteIS2_EEERKT0_RKSt11_Tuple_implIXT_EJS6_DpT1_EE(ptr noundef nonnull align 8 dereferenceable(8) %3) #6
  ret ptr %4
}

; Function Attrs: mustprogress nounwind uwtable
define linkonce_odr hidden noundef ptr @_ZNKSt15__uniq_ptr_implIN5osgeo4proj9GTiffGridESt14default_deleteIS2_EE6_M_ptrEv(ptr noundef nonnull align 8 dereferenceable(8) %0) #0 comdat align 2 {
  %2 = alloca ptr, align 8
  store ptr %0, ptr %2, align 8, !tbaa !682
  %3 = load ptr, ptr %2, align 8
  %4 = getelementptr inbounds nuw %"class.std::__uniq_ptr_impl.63", ptr %3, i32 0, i32 0
  %5 = call noundef nonnull align 8 dereferenceable(8) ptr @_ZSt3getILm0EJPN5osgeo4proj9GTiffGridESt14default_deleteIS2_EEERKNSt13tuple_elementIXT_ESt5tupleIJDpT0_EEE4typeERKSA_(ptr noundef nonnull align 8 dereferenceable(8) %4) #6
  %6 = load ptr, ptr %5, align 8, !tbaa !123
  ret ptr %6
}

; Function Attrs: mustprogress nounwind uwtable
define linkonce_odr hidden noundef ptr @_ZNKSt10unique_ptrIN5osgeo4proj9GTiffGridESt14default_deleteIS2_EE3getEv(ptr noundef nonnull align 8 dereferenceable(8) %0) #0 comdat align 2 {
  %2 = alloca ptr, align 8
  store ptr %0, ptr %2, align 8, !tbaa !245
  %3 = load ptr, ptr %2, align 8
  %4 = getelementptr inbounds nuw %"class.std::unique_ptr.61", ptr %3, i32 0, i32 0
  %5 = call noundef ptr @_ZNKSt15__uniq_ptr_implIN5osgeo4proj9GTiffGridESt14default_deleteIS2_EE6_M_ptrEv(ptr noundef nonnull align 8 dereferenceable(8) %4) #6
  ret ptr %5
}

; Function Attrs: mustprogress nounwind uwtable
define linkonce_odr hidden noundef zeroext i16 @_ZNK5osgeo4proj9GTiffGrid15samplesPerPixelEv(ptr noundef nonnull align 8 dereferenceable(340) %0) #0 comdat align 2 {
  %2 = alloca ptr, align 8
  store ptr %0, ptr %2, align 8, !tbaa !123
  %3 = load ptr, ptr %2, align 8
  %4 = getelementptr inbounds nuw %"class.osgeo::proj::GTiffGrid", ptr %3, i32 0, i32 7
  %5 = load i16, ptr %4, align 8, !tbaa !155
  ret i16 %5
}

; Function Attrs: mustprogress nounwind uwtable
define linkonce_odr hidden noundef ptr @_ZNKSt10unique_ptrIN5osgeo4proj9GTiffGridESt14default_deleteIS2_EEptEv(ptr noundef nonnull align 8 dereferenceable(8) %0) #0 comdat align 2 {
  %2 = alloca ptr, align 8
  store ptr %0, ptr %2, align 8, !tbaa !245
  %3 = load ptr, ptr %2, align 8
  %4 = call noundef ptr @_ZNKSt10unique_ptrIN5osgeo4proj9GTiffGridESt14default_deleteIS2_EE3getEv(ptr noundef nonnull align 8 dereferenceable(8) %3) #6
  ret ptr %4
}

; Function Attrs: mustprogress uwtable
define hidden noundef zeroext i1 @_ZNK5osgeo4proj16GTiffGenericGrid7valueAtEiiiRf(ptr noundef nonnull align 8 dereferenceable(200) %0, i32 noundef %1, i32 noundef %2, i32 noundef %3, ptr noundef nonnull align 4 dereferenceable(4) %4) unnamed_addr #1 align 2 {
  %6 = alloca i1, align 1
  %7 = alloca ptr, align 8
  %8 = alloca i32, align 4
  %9 = alloca i32, align 4
  %10 = alloca i32, align 4
  %11 = alloca ptr, align 8
  store ptr %0, ptr %7, align 8, !tbaa !422
  store i32 %1, ptr %8, align 4, !tbaa !26
  store i32 %2, ptr %9, align 4, !tbaa !26
  store i32 %3, ptr %10, align 4, !tbaa !26
  store ptr %4, ptr %11, align 8, !tbaa !50
  %12 = load ptr, ptr %7, align 8
  %13 = load i32, ptr %10, align 4, !tbaa !26
  %14 = icmp slt i32 %13, 0
  br i1 %14, label %22, label %15

15:                                               ; preds = %5
  %16 = load i32, ptr %10, align 4, !tbaa !26
  %17 = getelementptr inbounds nuw %"class.osgeo::proj::GTiffGenericGrid", ptr %12, i32 0, i32 1
  %18 = call noundef ptr @_ZNKSt10unique_ptrIN5osgeo4proj9GTiffGridESt14default_deleteIS2_EEptEv(ptr noundef nonnull align 8 dereferenceable(8) %17) #6
  %19 = call noundef zeroext i16 @_ZNK5osgeo4proj9GTiffGrid15samplesPerPixelEv(ptr noundef nonnull align 8 dereferenceable(340) %18)
  %20 = zext i16 %19 to i32
  %21 = icmp uge i32 %16, %20
  br i1 %21, label %22, label %23

22:                                               ; preds = %15, %5
  store i1 false, ptr %6, align 1
  br label %32

23:                                               ; preds = %15
  %24 = getelementptr inbounds nuw %"class.osgeo::proj::GTiffGenericGrid", ptr %12, i32 0, i32 1
  %25 = call noundef ptr @_ZNKSt10unique_ptrIN5osgeo4proj9GTiffGridESt14default_deleteIS2_EEptEv(ptr noundef nonnull align 8 dereferenceable(8) %24) #6
  %26 = load i32, ptr %10, align 4, !tbaa !26
  %27 = trunc i32 %26 to i16
  %28 = load i32, ptr %8, align 4, !tbaa !26
  %29 = load i32, ptr %9, align 4, !tbaa !26
  %30 = load ptr, ptr %11, align 8, !tbaa !50
  %31 = call noundef zeroext i1 @_ZNK5osgeo4proj9GTiffGrid7valueAtEtiiRf(ptr noundef nonnull align 8 dereferenceable(340) %25, i16 noundef zeroext %27, i32 noundef %28, i32 noundef %29, ptr noundef nonnull align 4 dereferenceable(4) %30)
  store i1 %31, ptr %6, align 1
  br label %32

32:                                               ; preds = %23, %22
  %33 = load i1, ptr %6, align 1
  ret i1 %33
}