; Function Attrs: mustprogress uwtable
define hidden noundef zeroext i1 @_ZNK5osgeo4proj16GTiffGenericGrid7valueAtEiiiRf(ptr noundef nonnull readonly align 8 captures(none) dereferenceable(200) %0, i32 noundef %1, i32 noundef %2, i32 noundef %3, ptr noundef nonnull writeonly align 4 captures(none) dereferenceable(4) %4) unnamed_addr #2 align 2 {
  %6 = icmp slt i32 %3, 0
  br i1 %6, label %16, label %7

7:                                                ; preds = %5
  %8 = getelementptr inbounds nuw i8, ptr %0, i64 144
  %9 = load ptr, ptr %8, align 8, !tbaa !238
  %10 = getelementptr inbounds nuw i8, ptr %9, i64 160
  %11 = load i16, ptr %10, align 8, !tbaa !170
  %12 = zext i16 %11 to i32
  %.not = icmp samesign ult i32 %3, %12
  br i1 %.not, label %13, label %16

13:                                               ; preds = %7
  %14 = trunc nuw i32 %3 to i16
  %15 = tail call noundef zeroext i1 @_ZNK5osgeo4proj9GTiffGrid7valueAtEtiiRf(ptr noundef nonnull align 8 dereferenceable(340) %9, i16 noundef zeroext %14, i32 noundef %1, i32 noundef %2, ptr noundef nonnull align 4 dereferenceable(4) %4)
  br label %16

16:                                               ; preds = %5, %7, %13
  %.0 = phi i1 [ %15, %13 ], [ false, %7 ], [ false, %5 ]
  ret i1 %.0
}